target datalayout = "e-m:e-p270:32:32-p271:32:32-p272:64:64-i64:64-i128:128-f80:128-n8:16:32:64-S128"
target triple = "x86_64-pc-linux-gnu"

%struct.Lexer = type { ptr, ptr, ptr, ptr, i32, i32, ptr, ptr, ptr, %struct.TokenData, %union.SourceSpan, i32, i32 }
%struct.TokenData = type { ptr, i64, %union.anon.86 }
%union.anon.86 = type { %struct.anon.89 }
%struct.anon.89 = type { %struct.Int128_, i8 }
%struct.Int128_ = type { i64, i64 }
%union.SourceSpan = type { i64 }

; Function Attrs: nounwind uwtable
define dso_local zeroext i1 @lexer_next_token(ptr noundef %0) #0 {
  %2 = alloca ptr, align 8
  %3 = alloca i1, align 1
  %4 = alloca ptr, align 8
  %5 = alloca i8, align 1
  store ptr %0, ptr %4, align 8
  %6 = load ptr, ptr %4, align 8
  %7 = call zeroext i1 @lexer_scan_token_inner(ptr noundef %6)
  br i1 %7, label %8, label %9

8:                                                ; preds = %1
  store i1 true, ptr %3, align 1
  br label %79

9:                                                ; preds = %1
  %10 = load ptr, ptr %4, align 8
  %11 = getelementptr inbounds %struct.Lexer, ptr %10, i32 0, i32 3
  %12 = load ptr, ptr %11, align 8
  %13 = getelementptr inbounds i8, ptr %12, i64 0
  %14 = load i8, ptr %13, align 1
  %15 = sext i8 %14 to i32
  %16 = icmp eq i32 %15, 0
  br i1 %16, label %17, label %18

17:                                               ; preds = %9
  store i1 true, ptr %3, align 1
  br label %79

18:                                               ; preds = %9
  store i8 0, ptr %5, align 1
  br label %19

19:                                               ; preds = %69, %18
  %20 = load i8, ptr %5, align 1
  %21 = trunc i8 %20 to i1
  br i1 %21, label %65, label %22

22:                                               ; preds = %19
  br label %23

23:                                               ; preds = %59, %22
  %24 = load ptr, ptr %4, align 8
  %25 = getelementptr inbounds %struct.Lexer, ptr %24, i32 0, i32 3
  %26 = load ptr, ptr %25, align 8
  %27 = getelementptr inbounds i8, ptr %26, i64 0
  %28 = load i8, ptr %27, align 1
  %29 = sext i8 %28 to i32
  %30 = icmp eq i32 %29, 0
  br i1 %30, label %38, label %31

31:                                               ; preds = %23
  %32 = load ptr, ptr %4, align 8
  %33 = getelementptr inbounds %struct.Lexer, ptr %32, i32 0, i32 3
  %34 = load ptr, ptr %33, align 8
  %35 = load i8, ptr %34, align 1
  %36 = sext i8 %35 to i32
  %37 = icmp ne i32 %36, 10
  br label %38

38:                                               ; preds = %31, %23
  %39 = phi i1 [ false, %23 ], [ %37, %31 ]
  br i1 %39, label %40, label %64

40:                                               ; preds = %38
  %41 = load ptr, ptr %4, align 8
  store ptr %41, ptr %2, align 8
  %42 = load ptr, ptr %2, align 8
  %43 = getelementptr inbounds %struct.Lexer, ptr %42, i32 0, i32 3
  %44 = load ptr, ptr %43, align 8
  %45 = load i8, ptr %44, align 1
  %46 = sext i8 %45 to i32
  %47 = icmp eq i32 %46, 10
  br i1 %47, label %48, label %59

48:                                               ; preds = %40
  %49 = load ptr, ptr %2, align 8
  %50 = getelementptr inbounds %struct.Lexer, ptr %49, i32 0, i32 3
  %51 = load ptr, ptr %50, align 8
  %52 = getelementptr inbounds i8, ptr %51, i64 1
  %53 = load ptr, ptr %2, align 8
  %54 = getelementptr inbounds %struct.Lexer, ptr %53, i32 0, i32 6
  store ptr %52, ptr %54, align 8
  %55 = load ptr, ptr %2, align 8
  %56 = getelementptr inbounds %struct.Lexer, ptr %55, i32 0, i32 4
  %57 = load i32, ptr %56, align 8
  %58 = add i32 %57, 1
  store i32 %58, ptr %56, align 8
  br label %59

59:                                               ; preds = %48, %40
  %60 = load ptr, ptr %2, align 8
  %61 = getelementptr inbounds %struct.Lexer, ptr %60, i32 0, i32 3
  %62 = load ptr, ptr %61, align 8
  %63 = getelementptr inbounds i8, ptr %62, i32 1
  store ptr %63, ptr %61, align 8
  br label %23, !llvm.loop !10

64:                                               ; preds = %38
  br label %65

65:                                               ; preds = %64, %19
  %66 = load ptr, ptr %4, align 8
  %67 = call zeroext i1 @lexer_scan_token_inner(ptr noundef %66)
  %68 = zext i1 %67 to i8
  store i8 %68, ptr %5, align 1
  br label %69

69:                                               ; preds = %65
  %70 = load ptr, ptr %4, align 8
  %71 = getelementptr inbounds %struct.Lexer, ptr %70, i32 0, i32 3
  %72 = load ptr, ptr %71, align 8
  %73 = getelementptr inbounds i8, ptr %72, i64 0
  %74 = load i8, ptr %73, align 1
  %75 = sext i8 %74 to i32
  %76 = icmp eq i32 %75, 0
  %77 = xor i1 %76, true
  br i1 %77, label %19, label %78, !llvm.loop !11

78:                                               ; preds = %69
  store i1 false, ptr %3, align 1
  br label %79

79:                                               ; preds = %78, %17, %8
  %80 = load i1, ptr %3, align 1
  ret i1 %80
}